target datalayout = "e-m:e-p270:32:32-p271:32:32-p272:64:64-i64:64-i128:128-f80:128-n8:16:32:64-S128"
target triple = "x86_64-pc-linux-gnu"

%struct.AVCodecParserContext = type { ptr, ptr, i64, i64, i64, i32, i32, i64, i64, i64, i64, i32, i32, [4 x i64], [4 x i64], [4 x i64], i32, i64, [4 x i64], i32, i32, i32, i32, [4 x i64], i64, i64, i32, i32, i32, i32, i32, i32, i32, i32, i32 }
%struct.SBCParseContext = type { %struct.ParseContext, [3 x i8], i32, i32 }
%struct.ParseContext = type { ptr, i32, i32, i32, i32, i32, i32, i32, i64 }

; Function Attrs: nounwind uwtable
define internal i32 @sbc_parse(ptr noundef %0, ptr noundef %1, ptr noundef %2, ptr noundef %3, ptr noundef %4, i32 noundef %5) #0 {
  %7 = alloca i32, align 4
  %8 = alloca ptr, align 8
  %9 = alloca ptr, align 8
  %10 = alloca ptr, align 8
  %11 = alloca ptr, align 8
  %12 = alloca ptr, align 8
  %13 = alloca i32, align 4
  %14 = alloca ptr, align 8
  %15 = alloca i32, align 4
  %16 = alloca i32, align 4
  store ptr %0, ptr %8, align 8, !tbaa !4
  store ptr %1, ptr %9, align 8, !tbaa !9
  store ptr %2, ptr %10, align 8, !tbaa !11
  store ptr %3, ptr %11, align 8, !tbaa !14
  store ptr %4, ptr %12, align 8, !tbaa !16
  store i32 %5, ptr %13, align 4, !tbaa !18
  call void @llvm.lifetime.start.p0(i64 8, ptr %14) #4
  %17 = load ptr, ptr %8, align 8, !tbaa !4
  %18 = getelementptr inbounds nuw %struct.AVCodecParserContext, ptr %17, i32 0, i32 0
  %19 = load ptr, ptr %18, align 8, !tbaa !20
  store ptr %19, ptr %14, align 8, !tbaa !24
  call void @llvm.lifetime.start.p0(i64 4, ptr %15) #4
  %20 = load ptr, ptr %8, align 8, !tbaa !4
  %21 = getelementptr inbounds nuw %struct.AVCodecParserContext, ptr %20, i32 0, i32 16
  %22 = load i32, ptr %21, align 8, !tbaa !26
  %23 = and i32 %22, 1
  %24 = icmp ne i32 %23, 0
  br i1 %24, label %25, label %27

25:                                               ; preds = %6
  %26 = load i32, ptr %13, align 4, !tbaa !18
  store i32 %26, ptr %15, align 4, !tbaa !18
  br label %109

27:                                               ; preds = %6
  %28 = load ptr, ptr %14, align 8, !tbaa !24
  %29 = getelementptr inbounds nuw %struct.SBCParseContext, ptr %28, i32 0, i32 2
  %30 = load i32, ptr %29, align 4, !tbaa !27
  %31 = icmp ne i32 %30, 0
  br i1 %31, label %32, label %59

32:                                               ; preds = %27
  %33 = load ptr, ptr %14, align 8, !tbaa !24
  %34 = getelementptr inbounds nuw %struct.SBCParseContext, ptr %33, i32 0, i32 1
  %35 = getelementptr inbounds [3 x i8], ptr %34, i64 0, i64 0
  %36 = load ptr, ptr %14, align 8, !tbaa !24
  %37 = getelementptr inbounds nuw %struct.SBCParseContext, ptr %36, i32 0, i32 2
  %38 = load i32, ptr %37, align 4, !tbaa !27
  %39 = sext i32 %38 to i64
  %40 = getelementptr inbounds i8, ptr %35, i64 %39
  %41 = load ptr, ptr %12, align 8, !tbaa !16
  %42 = load ptr, ptr %14, align 8, !tbaa !24
  %43 = getelementptr inbounds nuw %struct.SBCParseContext, ptr %42, i32 0, i32 2
  %44 = load i32, ptr %43, align 4, !tbaa !27
  %45 = sext i32 %44 to i64
  %46 = sub i64 3, %45
  call void @llvm.memcpy.p0.p0.i64(ptr align 1 %40, ptr align 1 %41, i64 %46, i1 false)
  %47 = load ptr, ptr %8, align 8, !tbaa !4
  %48 = load ptr, ptr %9, align 8, !tbaa !9
  %49 = load ptr, ptr %14, align 8, !tbaa !24
  %50 = getelementptr inbounds nuw %struct.SBCParseContext, ptr %49, i32 0, i32 1
  %51 = getelementptr inbounds [3 x i8], ptr %50, i64 0, i64 0
  %52 = call i32 @sbc_parse_header(ptr noundef %47, ptr noundef %48, ptr noundef %51, i64 noundef 3)
  %53 = load ptr, ptr %14, align 8, !tbaa !24
  %54 = getelementptr inbounds nuw %struct.SBCParseContext, ptr %53, i32 0, i32 3
  %55 = load i32, ptr %54, align 8, !tbaa !30
  %56 = sub nsw i32 %52, %55
  store i32 %56, ptr %15, align 4, !tbaa !18
  %57 = load ptr, ptr %14, align 8, !tbaa !24
  %58 = getelementptr inbounds nuw %struct.SBCParseContext, ptr %57, i32 0, i32 2
  store i32 0, ptr %58, align 4, !tbaa !27
  br label %71

59:                                               ; preds = %27
  %60 = load ptr, ptr %8, align 8, !tbaa !4
  %61 = load ptr, ptr %9, align 8, !tbaa !9
  %62 = load ptr, ptr %12, align 8, !tbaa !16
  %63 = load i32, ptr %13, align 4, !tbaa !18
  %64 = sext i32 %63 to i64
  %65 = call i32 @sbc_parse_header(ptr noundef %60, ptr noundef %61, ptr noundef %62, i64 noundef %64)
  store i32 %65, ptr %15, align 4, !tbaa !18
  %66 = load i32, ptr %15, align 4, !tbaa !18
  %67 = load i32, ptr %13, align 4, !tbaa !18
  %68 = icmp sge i32 %66, %67
  br i1 %68, label %69, label %70

69:                                               ; preds = %59
  store i32 -1, ptr %15, align 4, !tbaa !18
  br label %70

70:                                               ; preds = %69, %59
  br label %71

71:                                               ; preds = %70, %32
  %72 = load i32, ptr %15, align 4, !tbaa !18
  %73 = icmp slt i32 %72, 0
  br i1 %73, label %74, label %98

74:                                               ; preds = %71
  %75 = load i32, ptr %13, align 4, !tbaa !18
  %76 = sext i32 %75 to i64
  %77 = icmp ugt i64 3, %76
  br i1 %77, label %78, label %81

78:                                               ; preds = %74
  %79 = load i32, ptr %13, align 4, !tbaa !18
  %80 = sext i32 %79 to i64
  br label %82

81:                                               ; preds = %74
  br label %82

82:                                               ; preds = %81, %78
  %83 = phi i64 [ %80, %78 ], [ 3, %81 ]
  %84 = trunc i64 %83 to i32
  %85 = load ptr, ptr %14, align 8, !tbaa !24
  %86 = getelementptr inbounds nuw %struct.SBCParseContext, ptr %85, i32 0, i32 2
  store i32 %84, ptr %86, align 4, !tbaa !27
  %87 = load ptr, ptr %14, align 8, !tbaa !24
  %88 = getelementptr inbounds nuw %struct.SBCParseContext, ptr %87, i32 0, i32 1
  %89 = getelementptr inbounds [3 x i8], ptr %88, i64 0, i64 0
  %90 = load ptr, ptr %12, align 8, !tbaa !16
  %91 = load ptr, ptr %14, align 8, !tbaa !24
  %92 = getelementptr inbounds nuw %struct.SBCParseContext, ptr %91, i32 0, i32 2
  %93 = load i32, ptr %92, align 4, !tbaa !27
  %94 = sext i32 %93 to i64
  call void @llvm.memcpy.p0.p0.i64(ptr align 8 %89, ptr align 1 %90, i64 %94, i1 false)
  %95 = load i32, ptr %13, align 4, !tbaa !18
  %96 = load ptr, ptr %14, align 8, !tbaa !24
  %97 = getelementptr inbounds nuw %struct.SBCParseContext, ptr %96, i32 0, i32 3
  store i32 %95, ptr %97, align 8, !tbaa !30
  store i32 -100, ptr %15, align 4, !tbaa !18
  br label %98

98:                                               ; preds = %82, %71
  %99 = load ptr, ptr %14, align 8, !tbaa !24
  %100 = getelementptr inbounds nuw %struct.SBCParseContext, ptr %99, i32 0, i32 0
  %101 = load i32, ptr %15, align 4, !tbaa !18
  %102 = call i32 @ff_combine_frame(ptr noundef %100, i32 noundef %101, ptr noundef %12, ptr noundef %13)
  %103 = icmp slt i32 %102, 0
  br i1 %103, label %104, label %108

104:                                              ; preds = %98
  %105 = load ptr, ptr %10, align 8, !tbaa !11
  store ptr null, ptr %105, align 8, !tbaa !16
  %106 = load ptr, ptr %11, align 8, !tbaa !14
  store i32 0, ptr %106, align 4, !tbaa !18
  %107 = load i32, ptr %13, align 4, !tbaa !18
  store i32 %107, ptr %7, align 4
  store i32 1, ptr %16, align 4
  br label %115

108:                                              ; preds = %98
  br label %109

109:                                              ; preds = %108, %25
  %110 = load ptr, ptr %12, align 8, !tbaa !16
  %111 = load ptr, ptr %10, align 8, !tbaa !11
  store ptr %110, ptr %111, align 8, !tbaa !16
  %112 = load i32, ptr %13, align 4, !tbaa !18
  %113 = load ptr, ptr %11, align 8, !tbaa !14
  store i32 %112, ptr %113, align 4, !tbaa !18
  %114 = load i32, ptr %15, align 4, !tbaa !18
  store i32 %114, ptr %7, align 4
  store i32 1, ptr %16, align 4
  br label %115

115:                                              ; preds = %109, %104
  call void @llvm.lifetime.end.p0(i64 4, ptr %15) #4
  call void @llvm.lifetime.end.p0(i64 8, ptr %14) #4
  %116 = load i32, ptr %7, align 4
  ret i32 %116
}