; Function Attrs: nounwind uwtable
define internal i32 @sbc_parse(ptr noundef captures(none) %0, ptr noundef %1, ptr noundef writeonly captures(none) initializes((0, 8)) %2, ptr noundef writeonly captures(none) initializes((0, 4)) %3, ptr noundef %4, i32 noundef %5) #0 {
  %7 = alloca ptr, align 8
  %8 = alloca i32, align 4
  store ptr %4, ptr %7, align 8, !tbaa !4
  store i32 %5, ptr %8, align 4, !tbaa !9
  %9 = load ptr, ptr %0, align 8, !tbaa !11
  %10 = getelementptr inbounds nuw i8, ptr %0, i64 184
  %11 = load i32, ptr %10, align 8, !tbaa !15
  %12 = and i32 %11, 1
  %.not = icmp eq i32 %12, 0
  br i1 %.not, label %13, label %38

13:                                               ; preds = %6
  %14 = getelementptr inbounds nuw i8, ptr %9, i64 52
  %15 = load i32, ptr %14, align 4, !tbaa !16
  %.not28 = icmp eq i32 %15, 0
  br i1 %.not28, label %25, label %16

16:                                               ; preds = %13
  %17 = getelementptr inbounds nuw i8, ptr %9, i64 48
  %18 = sext i32 %15 to i64
  %19 = getelementptr inbounds i8, ptr %17, i64 %18
  %20 = sub nsw i64 3, %18
  tail call void @llvm.memcpy.p0.p0.i64(ptr nonnull align 1 %19, ptr align 1 %4, i64 %20, i1 false)
  %21 = tail call fastcc i32 @sbc_parse_header(ptr noundef nonnull %0, ptr noundef %1, ptr noundef nonnull %17, i64 noundef 3)
  %22 = getelementptr inbounds nuw i8, ptr %9, i64 56
  %23 = load i32, ptr %22, align 8, !tbaa !19
  %24 = sub nsw i32 %21, %23
  store i32 0, ptr %14, align 4, !tbaa !16
  br label %select.unfold

25:                                               ; preds = %13
  %26 = sext i32 %5 to i64
  %27 = tail call fastcc i32 @sbc_parse_header(ptr noundef nonnull %0, ptr noundef %1, ptr noundef %4, i64 noundef %26)
  %.not29 = icmp slt i32 %27, %5
  br i1 %.not29, label %select.unfold, label %.thread

select.unfold:                                    ; preds = %25, %16
  %.1 = phi i32 [ %24, %16 ], [ %27, %25 ]
  %28 = icmp slt i32 %.1, 0
  br i1 %28, label %.thread, label %33

.thread:                                          ; preds = %25, %select.unfold
  %29 = tail call i32 @llvm.umin.i32(i32 %5, i32 3)
  store i32 %29, ptr %14, align 4, !tbaa !16
  %30 = getelementptr inbounds nuw i8, ptr %9, i64 48
  %31 = zext nneg i32 %29 to i64
  tail call void @llvm.memcpy.p0.p0.i64(ptr nonnull align 8 %30, ptr align 1 %4, i64 %31, i1 false)
  %32 = getelementptr inbounds nuw i8, ptr %9, i64 56
  store i32 %5, ptr %32, align 8, !tbaa !19
  br label %33

33:                                               ; preds = %.thread, %select.unfold
  %.2 = phi i32 [ -100, %.thread ], [ %.1, %select.unfold ]
  %34 = call i32 @ff_combine_frame(ptr noundef nonnull %9, i32 noundef %.2, ptr noundef nonnull %7, ptr noundef nonnull %8) #4
  %35 = icmp slt i32 %34, 0
  br i1 %35, label %36, label %._crit_edge

._crit_edge:                                      ; preds = %33
  %.pre = load ptr, ptr %7, align 8, !tbaa !4
  %.pre31 = load i32, ptr %8, align 4, !tbaa !9
  br label %38

36:                                               ; preds = %33
  store ptr null, ptr %2, align 8, !tbaa !4
  store i32 0, ptr %3, align 4, !tbaa !9
  %37 = load i32, ptr %8, align 4, !tbaa !9
  br label %41

38:                                               ; preds = %._crit_edge, %6
  %39 = phi i32 [ %.pre31, %._crit_edge ], [ %5, %6 ]
  %40 = phi ptr [ %.pre, %._crit_edge ], [ %4, %6 ]
  %.0 = phi i32 [ %.2, %._crit_edge ], [ %5, %6 ]
  store ptr %40, ptr %2, align 8, !tbaa !4
  store i32 %39, ptr %3, align 4, !tbaa !9
  br label %41

41:                                               ; preds = %38, %36
  %.026 = phi i32 [ %.0, %38 ], [ %37, %36 ]
  ret i32 %.026
}